; Function Attrs: nounwind uwtable
define dso_local void @ExecutorRewind(ptr noundef readonly captures(none) %0) local_unnamed_addr #0 {
  %2 = getelementptr inbounds nuw i8, ptr %0, i64 80
  %3 = load ptr, ptr %2, align 8
  %4 = getelementptr inbounds nuw i8, ptr %3, i64 192
  %5 = load ptr, ptr %4, align 8
  %6 = load ptr, ptr @CurrentMemoryContext, align 8
  store ptr %5, ptr @CurrentMemoryContext, align 8
  %7 = getelementptr inbounds nuw i8, ptr %0, i64 88
  %8 = load ptr, ptr %7, align 8
  tail call void @ExecReScan(ptr noundef %8) #9
  store ptr %6, ptr @CurrentMemoryContext, align 8
  ret void
}